target datalayout = "e-m:e-p270:32:32-p271:32:32-p272:64:64-i64:64-i128:128-f80:128-n8:16:32:64-S128"
target triple = "x86_64-pc-linux-gnu"

%struct.bio_st = type { ptr, ptr, ptr, i32, i32, i32, i32, i32, i32, ptr, ptr, i64, i64 }
%struct.bio_method_st = type { i32, ptr, ptr, ptr, ptr, ptr, ptr, ptr, ptr, ptr }

; Function Attrs: nounwind uwtable
define hidden ptr @BIO_pop(ptr noundef %0) #0 {
  %2 = alloca ptr, align 8
  %3 = alloca ptr, align 8
  %4 = alloca ptr, align 8
  %5 = alloca i32, align 4
  store ptr %0, ptr %3, align 8, !tbaa !11
  call void @llvm.lifetime.start.p0(i64 8, ptr %4) #9
  %6 = load ptr, ptr %3, align 8, !tbaa !11
  %7 = icmp eq ptr %6, null
  br i1 %7, label %8, label %9

8:                                                ; preds = %1
  store ptr null, ptr %2, align 8
  store i32 1, ptr %5, align 4
  br label %16

9:                                                ; preds = %1
  %10 = load ptr, ptr %3, align 8, !tbaa !11
  %11 = getelementptr inbounds nuw %struct.bio_st, ptr %10, i32 0, i32 10
  %12 = load ptr, ptr %11, align 8, !tbaa !27
  store ptr %12, ptr %4, align 8, !tbaa !11
  %13 = load ptr, ptr %3, align 8, !tbaa !11
  %14 = getelementptr inbounds nuw %struct.bio_st, ptr %13, i32 0, i32 10
  store ptr null, ptr %14, align 8, !tbaa !27
  %15 = load ptr, ptr %4, align 8, !tbaa !11
  store ptr %15, ptr %2, align 8
  store i32 1, ptr %5, align 4
  br label %16

16:                                               ; preds = %9, %8
  call void @llvm.lifetime.end.p0(i64 8, ptr %4) #9
  %17 = load ptr, ptr %2, align 8
  ret ptr %17
}

; Function Attrs: nounwind uwtable
define hidden i32 @BIO_free(ptr noundef %0) #0 {
  %2 = alloca i32, align 4
  %3 = alloca ptr, align 8
  %4 = alloca ptr, align 8
  %5 = alloca i32, align 4
  %6 = alloca i32, align 4
  store ptr %0, ptr %3, align 8, !tbaa !11
  call void @llvm.lifetime.start.p0(i64 8, ptr %4) #9
  br label %7

7:                                                ; preds = %60, %1
  %8 = load ptr, ptr %3, align 8, !tbaa !11
  %9 = icmp ne ptr %8, null
  br i1 %9, label %10, label %62

10:                                               ; preds = %7
  %11 = load ptr, ptr %3, align 8, !tbaa !11
  %12 = getelementptr inbounds nuw %struct.bio_st, ptr %11, i32 0, i32 8
  %13 = call i32 @CRYPTO_refcount_dec_and_test_zero(ptr noundef %12)
  %14 = icmp ne i32 %13, 0
  br i1 %14, label %16, label %15

15:                                               ; preds = %10
  store i32 0, ptr %2, align 4
  store i32 1, ptr %5, align 4
  br label %63

16:                                               ; preds = %10
  %17 = load ptr, ptr %3, align 8, !tbaa !11
  %18 = getelementptr inbounds nuw %struct.bio_st, ptr %17, i32 0, i32 1
  %19 = load ptr, ptr %18, align 8, !tbaa !22
  %20 = icmp ne ptr %19, null
  br i1 %20, label %21, label %36

21:                                               ; preds = %16
  call void @llvm.lifetime.start.p0(i64 4, ptr %6) #9
  %22 = load ptr, ptr %3, align 8, !tbaa !11
  %23 = getelementptr inbounds nuw %struct.bio_st, ptr %22, i32 0, i32 1
  %24 = load ptr, ptr %23, align 8, !tbaa !22
  %25 = load ptr, ptr %3, align 8, !tbaa !11
  %26 = call i64 %24(ptr noundef %25, i32 noundef 1, ptr noundef null, i32 noundef 0, i64 noundef 0, i64 noundef 1)
  %27 = trunc i64 %26 to i32
  store i32 %27, ptr %6, align 4, !tbaa !23
  %28 = load i32, ptr %6, align 4, !tbaa !23
  %29 = icmp sle i32 %28, 0
  br i1 %29, label %30, label %32

30:                                               ; preds = %21
  %31 = load i32, ptr %6, align 4, !tbaa !23
  store i32 %31, ptr %2, align 4
  store i32 1, ptr %5, align 4
  br label %33

32:                                               ; preds = %21
  store i32 0, ptr %5, align 4
  br label %33

33:                                               ; preds = %32, %30
  call void @llvm.lifetime.end.p0(i64 4, ptr %6) #9
  %34 = load i32, ptr %5, align 4
  switch i32 %34, label %63 [
    i32 0, label %35
  ]

35:                                               ; preds = %33
  br label %36

36:                                               ; preds = %35, %16
  %37 = load ptr, ptr %3, align 8, !tbaa !11
  %38 = call ptr @BIO_pop(ptr noundef %37)
  store ptr %38, ptr %4, align 8, !tbaa !11
  %39 = load ptr, ptr %3, align 8, !tbaa !11
  %40 = getelementptr inbounds nuw %struct.bio_st, ptr %39, i32 0, i32 0
  %41 = load ptr, ptr %40, align 8, !tbaa !13
  %42 = icmp ne ptr %41, null
  br i1 %42, label %43, label %58

43:                                               ; preds = %36
  %44 = load ptr, ptr %3, align 8, !tbaa !11
  %45 = getelementptr inbounds nuw %struct.bio_st, ptr %44, i32 0, i32 0
  %46 = load ptr, ptr %45, align 8, !tbaa !13
  %47 = getelementptr inbounds nuw %struct.bio_method_st, ptr %46, i32 0, i32 8
  %48 = load ptr, ptr %47, align 8, !tbaa !24
  %49 = icmp ne ptr %48, null
  br i1 %49, label %50, label %58

50:                                               ; preds = %43
  %51 = load ptr, ptr %3, align 8, !tbaa !11
  %52 = getelementptr inbounds nuw %struct.bio_st, ptr %51, i32 0, i32 0
  %53 = load ptr, ptr %52, align 8, !tbaa !13
  %54 = getelementptr inbounds nuw %struct.bio_method_st, ptr %53, i32 0, i32 8
  %55 = load ptr, ptr %54, align 8, !tbaa !24
  %56 = load ptr, ptr %3, align 8, !tbaa !11
  %57 = call i32 %55(ptr noundef %56)
  br label %58

58:                                               ; preds = %50, %43, %36
  %59 = load ptr, ptr %3, align 8, !tbaa !11
  call void @free(ptr noundef %59) #9
  br label %60

60:                                               ; preds = %58
  %61 = load ptr, ptr %4, align 8, !tbaa !11
  store ptr %61, ptr %3, align 8, !tbaa !11
  br label %7, !llvm.loop !25

62:                                               ; preds = %7
  store i32 1, ptr %2, align 4
  store i32 1, ptr %5, align 4
  br label %63

63:                                               ; preds = %62, %33, %15
  call void @llvm.lifetime.end.p0(i64 8, ptr %4) #9
  %64 = load i32, ptr %2, align 4
  ret i32 %64
}