; Function Attrs: nounwind uwtable
define hidden range(i32 -2147483648, 2) i32 @BIO_free(ptr noundef %0) local_unnamed_addr #0 {
  %.not25 = icmp eq ptr %0, null
  br i1 %.not25, label %._crit_edge, label %.lr.ph

.lr.ph:                                           ; preds = %1, %19
  %.01626 = phi ptr [ %12, %19 ], [ %0, %1 ]
  %2 = getelementptr inbounds nuw i8, ptr %.01626, i64 44
  %3 = tail call i32 @CRYPTO_refcount_dec_and_test_zero(ptr noundef nonnull %2) #18
  %.not21 = icmp eq i32 %3, 0
  br i1 %.not21, label %._crit_edge, label %4

4:                                                ; preds = %.lr.ph
  %5 = getelementptr inbounds nuw i8, ptr %.01626, i64 8
  %6 = load ptr, ptr %5, align 8, !tbaa !20
  %.not22 = icmp eq ptr %6, null
  br i1 %.not22, label %BIO_pop.exit, label %7

7:                                                ; preds = %4
  %8 = tail call i64 %6(ptr noundef nonnull %.01626, i32 noundef 1, ptr noundef null, i32 noundef 0, i64 noundef 0, i64 noundef 1) #18
  %9 = trunc i64 %8 to i32
  %10 = icmp sgt i32 %9, 0
  br i1 %10, label %BIO_pop.exit, label %._crit_edge

BIO_pop.exit:                                     ; preds = %7, %4
  %11 = getelementptr inbounds nuw i8, ptr %.01626, i64 56
  %12 = load ptr, ptr %11, align 8, !tbaa !21
  store ptr null, ptr %11, align 8, !tbaa !21
  %13 = load ptr, ptr %.01626, align 8, !tbaa !6
  %.not23 = icmp eq ptr %13, null
  br i1 %.not23, label %19, label %14

14:                                               ; preds = %BIO_pop.exit
  %15 = getelementptr inbounds nuw i8, ptr %13, i64 64
  %16 = load ptr, ptr %15, align 8, !tbaa !22
  %.not24 = icmp eq ptr %16, null
  br i1 %.not24, label %19, label %17

17:                                               ; preds = %14
  %18 = tail call i32 %16(ptr noundef nonnull %.01626) #18
  br label %19

19:                                               ; preds = %17, %14, %BIO_pop.exit
  tail call void @free(ptr noundef nonnull %.01626) #18
  %.not = icmp eq ptr %12, null
  br i1 %.not, label %._crit_edge, label %.lr.ph, !llvm.loop !23

._crit_edge:                                      ; preds = %7, %.lr.ph, %19, %1
  %.1 = phi i32 [ 1, %1 ], [ 1, %19 ], [ 0, %.lr.ph ], [ %9, %7 ]
  ret i32 %.1
}